target datalayout = "e-m:e-p270:32:32-p271:32:32-p272:64:64-i64:64-i128:128-f80:128-n8:16:32:64-S128"
target triple = "x86_64-pc-linux-gnu"

%struct.AVChannelLayout = type { i32, i32, %union.anon, ptr }
%union.anon = type { i64 }
%struct.AVCodecContext = type { ptr, i32, i32, ptr, i32, i32, ptr, ptr, ptr, i64, i32, i32, ptr, i32, %struct.AVRational, %struct.AVRational, %struct.AVRational, i32, i32, i32, i32, i32, %struct.AVRational, i32, i32, i32, i32, i32, i32, i32, i32, i32, i32, i32, ptr, ptr, i32, float, float, float, float, float, float, float, float, float, i32, i32, i32, i32, i32, i32, i32, i32, i32, i32, i32, i32, ptr, ptr, ptr, i32, i32, i32, i32, i32, i32, i32, i32, i32, i32, %struct.AVChannelLayout, i32, i32, i32, i32, i32, i32, i32, i32, ptr, i32, i32, i32, float, float, i32, i32, i32, i32, i32, ptr, i64, i64, float, float, i32, i32, ptr, ptr, i32, i32, i32, i32, i32, ptr, ptr, ptr, ptr, i32, i32, [8 x i64], i32, i32, i32, i32, i32, i32, i32, ptr, ptr, i32, i32, i32, i32, i32, i32, i32, i32, i32, i32, ptr, ptr, i32, i32, ptr, ptr, ptr, ptr, i32, i32, i64, i32, i32, i64, ptr, i64, ptr, i32, ptr, i32 }
%struct.AVRational = type { i32, i32 }
%struct.BlurayPCMEncContext = type { i16 }

; Function Attrs: cold nounwind optsize uwtable
define internal i32 @pcm_bluray_encode_init(ptr noundef %0) #0 {
  %2 = alloca i32, align 4
  %3 = alloca ptr, align 8
  %4 = alloca ptr, align 8
  %5 = alloca i8, align 1
  %6 = alloca i32, align 4
  %7 = alloca i32, align 4
  %8 = alloca i32, align 4
  %9 = alloca i32, align 4
  store ptr %0, ptr %3, align 8, !tbaa !4
  call void @llvm.lifetime.start.p0(i64 8, ptr %4) #7
  %10 = load ptr, ptr %3, align 8, !tbaa !4
  %11 = getelementptr inbounds nuw %struct.AVCodecContext, ptr %10, i32 0, i32 6
  %12 = load ptr, ptr %11, align 8, !tbaa !9
  store ptr %12, ptr %4, align 8, !tbaa !29
  call void @llvm.lifetime.start.p0(i64 1, ptr %5) #7
  call void @llvm.lifetime.start.p0(i64 4, ptr %6) #7
  call void @llvm.lifetime.start.p0(i64 4, ptr %7) #7
  call void @llvm.lifetime.start.p0(i64 4, ptr %8) #7
  %13 = load ptr, ptr %3, align 8, !tbaa !4
  %14 = getelementptr inbounds nuw %struct.AVCodecContext, ptr %13, i32 0, i32 70
  %15 = load i32, ptr %14, align 4, !tbaa !31
  switch i32 %15, label %22 [
    i32 1, label %16
    i32 2, label %19
  ]

16:                                               ; preds = %1
  %17 = load ptr, ptr %3, align 8, !tbaa !4
  %18 = getelementptr inbounds nuw %struct.AVCodecContext, ptr %17, i32 0, i32 114
  store i32 16, ptr %18, align 8, !tbaa !32
  store i32 240, ptr %8, align 4, !tbaa !33
  store i32 1, ptr %6, align 4, !tbaa !33
  br label %23

19:                                               ; preds = %1
  store i32 360, ptr %8, align 4, !tbaa !33
  %20 = load ptr, ptr %3, align 8, !tbaa !4
  %21 = getelementptr inbounds nuw %struct.AVCodecContext, ptr %20, i32 0, i32 114
  store i32 24, ptr %21, align 8, !tbaa !32
  store i32 3, ptr %6, align 4, !tbaa !33
  br label %23

22:                                               ; preds = %1
  store i32 -558323010, ptr %2, align 4
  store i32 1, ptr %9, align 4
  br label %62

23:                                               ; preds = %19, %16
  %24 = load ptr, ptr %3, align 8, !tbaa !4
  %25 = getelementptr inbounds nuw %struct.AVCodecContext, ptr %24, i32 0, i32 69
  %26 = load i32, ptr %25, align 8, !tbaa !34
  switch i32 %26, label %30 [
    i32 48000, label %27
    i32 96000, label %28
    i32 192000, label %29
  ]

27:                                               ; preds = %23
  store i32 1, ptr %7, align 4, !tbaa !33
  br label %31

28:                                               ; preds = %23
  store i32 4, ptr %7, align 4, !tbaa !33
  br label %31

29:                                               ; preds = %23
  store i32 5, ptr %7, align 4, !tbaa !33
  br label %31

30:                                               ; preds = %23
  store i32 -558323010, ptr %2, align 4
  store i32 1, ptr %9, align 4
  br label %62

31:                                               ; preds = %29, %28, %27
  %32 = load ptr, ptr %3, align 8, !tbaa !4
  %33 = getelementptr inbounds nuw %struct.AVCodecContext, ptr %32, i32 0, i32 71
  %34 = call i64 @av_channel_layout_subset(ptr noundef %33, i64 noundef -1)
  switch i64 %34, label %45 [
    i64 4, label %35
    i64 3, label %36
    i64 7, label %37
    i64 259, label %38
    i64 263, label %39
    i64 1539, label %40
    i64 1543, label %41
    i64 1551, label %42
    i64 1591, label %43
    i64 1599, label %44
  ]

35:                                               ; preds = %31
  store i8 1, ptr %5, align 1, !tbaa !35
  br label %46

36:                                               ; preds = %31
  store i8 3, ptr %5, align 1, !tbaa !35
  br label %46

37:                                               ; preds = %31
  store i8 4, ptr %5, align 1, !tbaa !35
  br label %46

38:                                               ; preds = %31
  store i8 5, ptr %5, align 1, !tbaa !35
  br label %46

39:                                               ; preds = %31
  store i8 6, ptr %5, align 1, !tbaa !35
  br label %46

40:                                               ; preds = %31
  store i8 7, ptr %5, align 1, !tbaa !35
  br label %46

41:                                               ; preds = %31
  store i8 8, ptr %5, align 1, !tbaa !35
  br label %46

42:                                               ; preds = %31
  store i8 9, ptr %5, align 1, !tbaa !35
  br label %46

43:                                               ; preds = %31
  store i8 10, ptr %5, align 1, !tbaa !35
  br label %46

44:                                               ; preds = %31
  store i8 11, ptr %5, align 1, !tbaa !35
  br label %46

45:                                               ; preds = %31
  store i32 -558323010, ptr %2, align 4
  store i32 1, ptr %9, align 4
  br label %62

46:                                               ; preds = %44, %43, %42, %41, %40, %39, %38, %37, %36, %35
  %47 = load i8, ptr %5, align 1, !tbaa !35
  %48 = zext i8 %47 to i32
  %49 = shl i32 %48, 4
  %50 = load i32, ptr %7, align 4, !tbaa !33
  %51 = or i32 %49, %50
  %52 = shl i32 %51, 8
  %53 = load i32, ptr %6, align 4, !tbaa !33
  %54 = shl i32 %53, 6
  %55 = or i32 %52, %54
  %56 = trunc i32 %55 to i16
  %57 = load ptr, ptr %4, align 8, !tbaa !29
  %58 = getelementptr inbounds nuw %struct.BlurayPCMEncContext, ptr %57, i32 0, i32 0
  store i16 %56, ptr %58, align 2, !tbaa !36
  %59 = load i32, ptr %8, align 4, !tbaa !33
  %60 = load ptr, ptr %3, align 8, !tbaa !4
  %61 = getelementptr inbounds nuw %struct.AVCodecContext, ptr %60, i32 0, i32 72
  store i32 %59, ptr %61, align 8, !tbaa !39
  store i32 0, ptr %2, align 4
  store i32 1, ptr %9, align 4
  br label %62

62:                                               ; preds = %46, %45, %30, %22
  call void @llvm.lifetime.end.p0(i64 4, ptr %8) #7
  call void @llvm.lifetime.end.p0(i64 4, ptr %7) #7
  call void @llvm.lifetime.end.p0(i64 4, ptr %6) #7
  call void @llvm.lifetime.end.p0(i64 1, ptr %5) #7
  call void @llvm.lifetime.end.p0(i64 8, ptr %4) #7
  %63 = load i32, ptr %2, align 4
  ret i32 %63
}