; Function Attrs: cold nounwind optsize uwtable
define internal range(i32 -558323010, 1) i32 @pcm_bluray_encode_init(ptr noundef %0) #0 {
  %2 = getelementptr inbounds nuw i8, ptr %0, i64 32
  %3 = load ptr, ptr %2, align 8, !tbaa !4
  %4 = getelementptr inbounds nuw i8, ptr %0, i64 348
  %5 = load i32, ptr %4, align 4, !tbaa !27
  switch i32 %5, label %29 [
    i32 1, label %7
    i32 2, label %6
  ]

6:                                                ; preds = %1
  br label %7

7:                                                ; preds = %1, %6
  %.sink = phi i32 [ 24, %6 ], [ 16, %1 ]
  %.013 = phi i16 [ 192, %6 ], [ 64, %1 ]
  %.0 = phi i32 [ 360, %6 ], [ 240, %1 ]
  %8 = getelementptr inbounds nuw i8, ptr %0, i64 648
  store i32 %.sink, ptr %8, align 8, !tbaa !28
  %9 = getelementptr inbounds nuw i8, ptr %0, i64 344
  %10 = load i32, ptr %9, align 8, !tbaa !29
  switch i32 %10, label %29 [
    i32 48000, label %13
    i32 96000, label %11
    i32 192000, label %12
  ]

11:                                               ; preds = %7
  br label %13

12:                                               ; preds = %7
  br label %13

13:                                               ; preds = %7, %12, %11
  %.012 = phi i16 [ 1280, %12 ], [ 1024, %11 ], [ 256, %7 ]
  %14 = getelementptr inbounds nuw i8, ptr %0, i64 352
  %15 = tail call i64 @av_channel_layout_subset(ptr noundef nonnull %14, i64 noundef -1) #5
  switch i64 %15, label %29 [
    i64 4, label %25
    i64 3, label %16
    i64 7, label %17
    i64 259, label %18
    i64 263, label %19
    i64 1539, label %20
    i64 1543, label %21
    i64 1551, label %22
    i64 1591, label %23
    i64 1599, label %24
  ]

16:                                               ; preds = %13
  br label %25

17:                                               ; preds = %13
  br label %25

18:                                               ; preds = %13
  br label %25

19:                                               ; preds = %13
  br label %25

20:                                               ; preds = %13
  br label %25

21:                                               ; preds = %13
  br label %25

22:                                               ; preds = %13
  br label %25

23:                                               ; preds = %13
  br label %25

24:                                               ; preds = %13
  br label %25

25:                                               ; preds = %13, %24, %23, %22, %21, %20, %19, %18, %17, %16
  %.014 = phi i16 [ -20480, %24 ], [ -24576, %23 ], [ -28672, %22 ], [ -32768, %21 ], [ 28672, %20 ], [ 24576, %19 ], [ 20480, %18 ], [ 16384, %17 ], [ 12288, %16 ], [ 4096, %13 ]
  %26 = or disjoint i16 %.012, %.013
  %27 = or disjoint i16 %26, %.014
  store i16 %27, ptr %3, align 2, !tbaa !30
  %28 = getelementptr inbounds nuw i8, ptr %0, i64 376
  store i32 %.0, ptr %28, align 8, !tbaa !33
  br label %29

29:                                               ; preds = %13, %7, %1, %25
  %.015 = phi i32 [ 0, %25 ], [ -558323010, %1 ], [ -558323010, %7 ], [ -558323010, %13 ]
  ret i32 %.015
}